(dp0
S'OriginalConfig'
p1
ccopy_reg
_reconstructor
p2
(cWMCore.Configuration
Configuration
p3
c__builtin__
object
p4
Ntp5
Rp6
(dp7
S'Site'
p8
g2
(cWMCore.Configuration
ConfigSection
p9
g4
Ntp10
Rp11
(dp12
S'_internal_skipChecks'
p13
I00
sS'_internal_documentation'
p14
S''
p15
sS'_internal_settings'
p16
c__builtin__
set
p17
((lp18
S'storageSite'
p19
atp20
Rp21
sS'_internal_name'
p22
g8
sS'_internal_docstrings'
p23
(dp24
sS'_internal_children'
p25
g17
((lp26
tp27
Rp28
sg19
S'T2_CH_CERN'
p29
sS'_internal_parent_ref'
p30
NsbsS'_internal_sections'
p31
(lp32
S'General'
p33
aS'JobType'
p34
aS'Data'
p35
ag8
aS'User'
p36
aS'Debug'
p37
asg36
g2
(g9
g4
Ntp38
Rp39
(dp40
g13
I00
sg14
g15
sg16
g17
((lp41
tp42
Rp43
sg22
g36
sg23
(dp44
sg25
g17
((lp45
tp46
Rp47
sg30
Nsbsg37
g2
(g9
g4
Ntp48
Rp49
(dp50
g13
I00
sg14
g15
sg16
g17
((lp51
tp52
Rp53
sg22
g37
sg23
(dp54
sg25
g17
((lp55
tp56
Rp57
sg30
Nsbsg33
g2
(g9
g4
Ntp58
Rp59
(dp60
S'transferLogs'
p61
I01
sg13
I00
sg14
g15
sg16
g17
((lp62
g61
aS'transferOutputs'
p63
aS'workArea'
p64
aS'requestName'
p65
atp66
Rp67
sg22
g33
sg23
(dp68
sg63
I01
sg25
g17
((lp69
tp70
Rp71
sg65
S'crab_dmf_2024-01-24_UTC22-51-33'
p72
sg30
Nsg64
S'/afs/cern.ch/user/d/dmf/private/work/private/CMSPhysicsAnalysis/DarkMatterSearch/2023/NTuplizer/CMSSW_10_6_17_patch1/src/PPSFramework/working/doublemuon-data-2018C-13TEV/crab_dmf_2024-01-24_UTC22-51-33'
p73
sbsg35
g2
(g9
g4
Ntp74
Rp75
(dp76
S'inputDataset'
p77
S'/DoubleMuon/Run2018C-UL2018_MiniAODv2-v1/MINIAOD'
p78
sg13
I00
sS'splitting'
p79
S'LumiBased'
p80
sS'unitsPerJob'
p81
I20
sg14
g15
sg16
g17
((lp82
g77
aS'publication'
p83
ag81
ag79
aS'inputDBS'
p84
aS'outLFNDirBase'
p85
aS'lumiMask'
p86
atp87
Rp88
sg22
g35
sg84
S'global'
p89
sg23
(dp90
sg25
g17
((lp91
tp92
Rp93
sg85
S'/store/group/phys_exotica/PPS-Exo/Grid/doublemuon-data-2018C-13TEV/crab_dmf_2024-01-24_UTC22-51-33'
p94
sg30
Nsg86
S'/afs/cern.ch/user/d/dmf/private/work/private/CMSPhysicsAnalysis/DarkMatterSearch/2023/NTuplizer/CMSSW_10_6_17_patch1/src/PPSFramework/working/json_dpg/combined_RPIN_CMS_2018.json'
p95
sg83
I00
sbsg34
g2
(g9
g4
Ntp96
Rp97
(dp98
S'outputFiles'
p99
(lp100
S'output.root'
p101
asg13
I00
sg14
g15
sg16
g17
((lp102
S'psetName'
p103
aS'pluginName'
p104
ag99
aS'pyCfgParams'
p105
atp106
Rp107
sg22
g34
sg104
S'Analysis'
p108
sg23
(dp109
sg105
(lp110
S'year=2018'
p111
aS'ppstagging=True'
p112
aS'physics=bjet'
p113
aS'mode=data'
p114
aS'era=C'
p115
aS'trigger=True'
p116
aS'prescale=True'
p117
aS'reduced=True'
p118
aS'unmatching=False'
p119
asg25
g17
((lp120
tp121
Rp122
sg103
S'/afs/cern.ch/user/d/dmf/private/work/private/CMSPhysicsAnalysis/DarkMatterSearch/2023/NTuplizer/CMSSW_10_6_17_patch1/src/PPSFramework/working/RunMissingMassSearches.py'
p123
sg30
NsbsbsS'voGroup'
p124
g15
sS'Server'
p125
S'cmsweb.cern.ch'
p126
sS'instance'
p127
S'prod'
p128
sS'RequestName'
p129
V240124_215141:dmf_crab_crab_dmf_2024-01-24_UTC22-51-33
p130
sS'voRole'
p131
S'NULL'
p132
sS'Port'
p133
g15
s.